target datalayout = "e-m:e-p270:32:32-p271:32:32-p272:64:64-i64:64-i128:128-f80:128-n8:16:32:64-S128"
target triple = "x86_64-pc-linux-gnu"

@hw_type_names = internal constant [14 x ptr] [ptr null, ptr @.str.8, ptr @.str.9, ptr @.str.10, ptr @.str.11, ptr @.str.12, ptr @.str.13, ptr @.str.14, ptr @.str.15, ptr @.str.16, ptr @.str.17, ptr @.str.18, ptr @.str.19, ptr @.str.20], align 16

; Function Attrs: nounwind uwtable
define ptr @av_hwdevice_get_type_name(i32 noundef %0) #0 {
  %2 = alloca ptr, align 8
  %3 = alloca i32, align 4
  store i32 %0, ptr %3, align 4, !tbaa !9
  %4 = load i32, ptr %3, align 4, !tbaa !9
  %5 = icmp ugt i32 %4, 0
  br i1 %5, label %6, label %15

6:                                                ; preds = %1
  %7 = load i32, ptr %3, align 4, !tbaa !9
  %8 = zext i32 %7 to i64
  %9 = icmp ult i64 %8, 14
  br i1 %9, label %10, label %15

10:                                               ; preds = %6
  %11 = load i32, ptr %3, align 4, !tbaa !9
  %12 = zext i32 %11 to i64
  %13 = getelementptr inbounds nuw [14 x ptr], ptr @hw_type_names, i64 0, i64 %12
  %14 = load ptr, ptr %13, align 8, !tbaa !4
  store ptr %14, ptr %2, align 8
  br label %16

15:                                               ; preds = %6, %1
  store ptr null, ptr %2, align 8
  br label %16

16:                                               ; preds = %15, %10
  %17 = load ptr, ptr %2, align 8
  ret ptr %17
}