; Function Attrs: mustprogress nofree norecurse nosync nounwind willreturn memory(none) uwtable
define ptr @av_hwdevice_get_type_name(i32 noundef %0) local_unnamed_addr #3 {
  %2 = add i32 %0, -1
  %or.cond = icmp ult i32 %2, 13
  br i1 %or.cond, label %3, label %7

3:                                                ; preds = %1
  %4 = zext nneg i32 %0 to i64
  %5 = getelementptr inbounds nuw [14 x ptr], ptr @hw_type_names, i64 0, i64 %4
  %6 = load ptr, ptr %5, align 8, !tbaa !4
  br label %7

7:                                                ; preds = %1, %3
  %.0 = phi ptr [ %6, %3 ], [ null, %1 ]
  ret ptr %.0
}